Certificate:
    Data:
        Version: 3 (0x2)
        Serial Number: 15531584479366738711 (0xd78b45cb4b9ff317)
    Signature Algorithm: sha1WithRSAEncryption
        Issuer: C=CH, ST=Shandong, L=Jinan, O=HighGo, CN=HGDB_AQKK
        Validity
            Not Before: Oct 13 08:51:48 2016 GMT
            Not After : Nov 12 08:51:48 2016 GMT
        Subject: C=CH, ST=Shandong, L=Jinan, O=HighGo, CN=HGDB_AQKK
        Subject Public Key Info:
            Public Key Algorithm: rsaEncryption
                Public-Key: (2048 bit)
                Modulus:
                    00:cf:ff:38:d1:e4:d8:e9:c8:98:ae:81:cc:57:9f:
                    aa:fd:58:6c:13:fa:db:1d:68:d9:7b:2a:20:2c:8a:
                    88:c7:da:55:b7:b0:90:76:3d:c5:b7:06:c4:58:19:
                    c5:4e:61:54:59:f5:b8:bf:94:1f:7f:d6:fa:c2:03:
                    cf:10:2a:01:7f:06:bd:f7:9a:96:2a:49:79:db:80:
                    05:1c:e4:c2:c5:b7:fd:96:00:4d:9f:1c:31:fa:7b:
                    e7:53:9c:40:29:29:48:a3:5d:18:17:21:24:d3:81:
                    68:bb:40:00:c0:f5:55:1f:9e:e5:f3:3d:26:29:64:
                    c2:f1:97:ff:3d:7b:92:1d:22:b8:cf:bf:1c:c3:1e:
                    ec:95:6f:2f:1f:a8:ed:9c:84:cb:39:35:21:d1:fb:
                    b1:8b:d7:33:6f:ad:45:ab:a9:8b:c0:68:25:c7:1e:
                    11:72:db:41:0d:e1:a4:f7:87:00:be:36:1d:c4:4b:
                    eb:fc:54:c1:a3:29:54:3c:be:f2:4f:c9:81:d2:3e:
                    79:6d:79:4a:c4:1a:18:76:76:b0:29:6d:4b:ac:e6:
                    8a:9b:60:c6:e3:c6:2e:67:96:40:a8:59:2a:2f:06:
                    57:15:42:ce:75:a1:56:16:7d:49:5b:90:ba:db:3f:
                    5f:ef:60:1d:aa:44:94:91:e0:12:b9:fd:12:07:81:
                    25:07
                Exponent: 65537 (0x10001)
        X509v3 extensions:
            X509v3 Subject Key Identifier: 
                02:74:09:C2:7D:14:99:EB:D7:DD:EC:8E:DD:03:E7:84:E2:5A:40:40
            X509v3 Authority Key Identifier: 
                keyid:02:74:09:C2:7D:14:99:EB:D7:DD:EC:8E:DD:03:E7:84:E2:5A:40:40

            X509v3 Basic Constraints: 
                CA:TRUE
    Signature Algorithm: sha1WithRSAEncryption
         2b:74:1c:be:0d:0c:ff:69:27:99:fb:ca:4c:5c:d3:f8:a5:e6:
         02:0a:0a:f3:da:7c:9d:b7:e4:75:d0:d8:a2:84:d2:81:e2:05:
         c8:0b:7e:d5:23:38:58:e3:50:5a:ff:e9:d4:77:0d:bc:71:b2:
         ba:25:94:6e:ef:af:dd:1d:f2:9a:ce:0e:56:6c:c3:8f:4c:54:
         f1:56:31:4e:f6:b6:5f:a3:3b:25:14:5c:1a:e5:81:00:5b:db:
         db:d2:c2:cd:39:29:4b:8c:6e:5b:2d:89:3e:70:f8:d8:4f:bf:
         37:64:6f:37:69:ef:71:92:84:c9:c5:b1:68:d6:19:b3:35:b4:
         e0:15:0f:ba:d3:46:da:1f:43:9e:a4:a3:3e:72:3d:76:a1:df:
         3c:84:d9:a5:95:32:56:de:a1:41:df:6b:41:65:d3:65:1f:d7:
         79:62:fc:6f:66:43:27:e4:77:4e:e5:3f:d4:ff:09:34:c6:4d:
         eb:24:cb:40:bb:96:89:f0:12:56:8b:2d:85:8a:06:39:11:c5:
         84:48:7d:33:d6:96:19:4d:f5:d3:64:7a:61:a8:a2:1b:76:79:
         4a:99:90:c6:44:ba:b3:aa:1e:4c:1d:ce:f8:89:95:46:77:04:
         67:bd:31:7d:13:da:d1:fa:6e:9a:63:e1:6a:94:86:20:cc:fa:
         f0:ef:e0:22
-----BEGIN CERTIFICATE-----
MIIDfTCCAmWgAwIBAgIJANeLRctLn/MXMA0GCSqGSIb3DQEBBQUAMFUxCzAJBgNV
BAYTAkNIMREwDwYDVQQIDAhTaGFuZG9uZzEOMAwGA1UEBwwFSmluYW4xDzANBgNV
BAoMBkhpZ2hHbzESMBAGA1UEAwwJSEdEQl9BUUtLMB4XDTE2MTAxMzA4NTE0OFoX
DTE2MTExMjA4NTE0OFowVTELMAkGA1UEBhMCQ0gxETAPBgNVBAgMCFNoYW5kb25n
MQ4wDAYDVQQHDAVKaW5hbjEPMA0GA1UECgwGSGlnaEdvMRIwEAYDVQQDDAlIR0RC
X0FRS0swggEiMA0GCSqGSIb3DQEBAQUAA4IBDwAwggEKAoIBAQDP/zjR5NjpyJiu
gcxXn6r9WGwT+tsdaNl7KiAsiojH2lW3sJB2PcW3BsRYGcVOYVRZ9bi/lB9/1vrC
A88QKgF/Br33mpYqSXnbgAUc5MLFt/2WAE2fHDH6e+dTnEApKUijXRgXISTTgWi7
QADA9VUfnuXzPSYpZMLxl/89e5IdIrjPvxzDHuyVby8fqO2chMs5NSHR+7GL1zNv
rUWrqYvAaCXHHhFy20EN4aT3hwC+Nh3ES+v8VMGjKVQ8vvJPyYHSPnlteUrEGhh2
drApbUus5oqbYMbjxi5nlkCoWSovBlcVQs51oVYWfUlbkLrbP1/vYB2qRJSR4BK5
/RIHgSUHAgMBAAGjUDBOMB0GA1UdDgQWBBQCdAnCfRSZ69fd7I7dA+eE4lpAQDAf
BgNVHSMEGDAWgBQCdAnCfRSZ69fd7I7dA+eE4lpAQDAMBgNVHRMEBTADAQH/MA0G
CSqGSIb3DQEBBQUAA4IBAQArdBy+DQz/aSeZ+8pMXNP4peYCCgrz2nydt+R10Nii
hNKB4gXIC37VIzhY41Ba/+nUdw28cbK6JZRu76/dHfKazg5WbMOPTFTxVjFO9rZf
ozslFFwa5YEAW9vb0sLNOSlLjG5bLYk+cPjYT783ZG83ae9xkoTJxbFo1hmzNbTg
FQ+600baH0OepKM+cj12od88hNmllTJW3qFB32tBZdNlH9d5YvxvZkMn5HdO5T/U
/wk0xk3rJMtAu5aJ8BJWiy2FigY5EcWESH0z1pYZTfXTZHphqKIbdnlKmZDGRLqz
qh5MHc74iZVGdwRnvTF9E9rR+m6aY+FqlIYgzPrw7+Ai
-----END CERTIFICATE-----
